target datalayout = "e-m:e-p270:32:32-p271:32:32-p272:64:64-i64:64-i128:128-f80:128-n8:16:32:64-S128"
target triple = "x86_64-pc-linux-gnu"

%"class.icu_77::MaybeStackArray" = type <{ ptr, i32, i8, [40 x i8], [3 x i8] }>
%"class.icu_77::MeasureUnitImpl" = type { i32, %"class.icu_77::MaybeStackVector", %"class.icu_77::CharString", i64 }
%"class.icu_77::MaybeStackVector" = type { %"class.icu_77::MemoryPool" }
%"class.icu_77::MemoryPool" = type { i32, %"class.icu_77::MaybeStackArray.0" }
%"class.icu_77::MaybeStackArray.0" = type { ptr, i32, i8, [8 x ptr] }
%"class.icu_77::CharString" = type { %"class.icu_77::MaybeStackArray", i32, [4 x i8] }
%"class.icu_77::units::UnitsConverter" = type { [8 x i8], %"struct.icu_77::units::ConversionRate" }
%"struct.icu_77::units::ConversionRate" = type <{ [8 x i8], %"class.icu_77::MeasureUnitImpl", %"class.icu_77::MeasureUnitImpl", %"class.icu_77::CharString", %"class.icu_77::CharString", double, double, double, double, i8, [7 x i8] }>

; Function Attrs: inlinehint mustprogress nounwind uwtable
define internal noundef signext i8 @_ZL9U_FAILURE10UErrorCode(i32 noundef %0) #2 {
  %2 = alloca i32, align 4
  store i32 %0, ptr %2, align 4, !tbaa !15
  %3 = load i32, ptr %2, align 4, !tbaa !15
  %4 = icmp sgt i32 %3, 0
  %5 = zext i1 %4 to i8
  ret i8 %5
}

; Function Attrs: mustprogress uwtable
define void @_ZN6icu_775units14UnitsConverter4initERKNS0_15ConversionRatesER10UErrorCode(ptr noundef nonnull align 8 dereferenceable(520) %0, ptr noundef nonnull align 8 dereferenceable(88) %1, ptr noundef nonnull align 4 dereferenceable(4) %2) #1 align 2 {
  %4 = alloca ptr, align 8
  %5 = alloca ptr, align 8
  %6 = alloca ptr, align 8
  %7 = alloca i32, align 4
  %8 = alloca i32, align 4
  store ptr %0, ptr %4, align 8, !tbaa !92
  store ptr %1, ptr %5, align 8, !tbaa !48
  store ptr %2, ptr %6, align 8, !tbaa !22
  %9 = load ptr, ptr %4, align 8
  %10 = load ptr, ptr %6, align 8, !tbaa !22
  %11 = load i32, ptr %10, align 4, !tbaa !15
  %12 = call noundef signext i8 @_ZL9U_FAILURE10UErrorCode(i32 noundef %11)
  %13 = icmp ne i8 %12, 0
  br i1 %13, label %14, label %15

14:                                               ; preds = %3
  br label %58

15:                                               ; preds = %3
  %16 = getelementptr inbounds nuw %"class.icu_77::units::UnitsConverter", ptr %9, i32 0, i32 1
  %17 = getelementptr inbounds nuw %"struct.icu_77::units::ConversionRate", ptr %16, i32 0, i32 1
  %18 = getelementptr inbounds nuw %"class.icu_77::MeasureUnitImpl", ptr %17, i32 0, i32 0
  %19 = load i32, ptr %18, align 8, !tbaa !102
  %20 = icmp eq i32 %19, 2
  br i1 %20, label %27, label %21

21:                                               ; preds = %15
  %22 = getelementptr inbounds nuw %"class.icu_77::units::UnitsConverter", ptr %9, i32 0, i32 1
  %23 = getelementptr inbounds nuw %"struct.icu_77::units::ConversionRate", ptr %22, i32 0, i32 2
  %24 = getelementptr inbounds nuw %"class.icu_77::MeasureUnitImpl", ptr %23, i32 0, i32 0
  %25 = load i32, ptr %24, align 8, !tbaa !104
  %26 = icmp eq i32 %25, 2
  br i1 %26, label %27, label %29

27:                                               ; preds = %21, %15
  %28 = load ptr, ptr %6, align 8, !tbaa !22
  store i32 65804, ptr %28, align 4, !tbaa !15
  br label %58

29:                                               ; preds = %21
  call void @llvm.lifetime.start.p0(i64 4, ptr %7) #12
  %30 = getelementptr inbounds nuw %"class.icu_77::units::UnitsConverter", ptr %9, i32 0, i32 1
  %31 = getelementptr inbounds nuw %"struct.icu_77::units::ConversionRate", ptr %30, i32 0, i32 1
  %32 = getelementptr inbounds nuw %"class.icu_77::units::UnitsConverter", ptr %9, i32 0, i32 1
  %33 = getelementptr inbounds nuw %"struct.icu_77::units::ConversionRate", ptr %32, i32 0, i32 2
  %34 = load ptr, ptr %5, align 8, !tbaa !48
  %35 = load ptr, ptr %6, align 8, !tbaa !22
  %36 = call noundef i32 @_ZN6icu_775units21extractConvertibilityERKNS_15MeasureUnitImplES3_RKNS0_15ConversionRatesER10UErrorCode(ptr noundef nonnull align 8 dereferenceable(168) %31, ptr noundef nonnull align 8 dereferenceable(168) %33, ptr noundef nonnull align 8 dereferenceable(88) %34, ptr noundef nonnull align 4 dereferenceable(4) %35)
  store i32 %36, ptr %7, align 4, !tbaa !105
  %37 = load ptr, ptr %6, align 8, !tbaa !22
  %38 = load i32, ptr %37, align 4, !tbaa !15
  %39 = call noundef signext i8 @_ZL9U_FAILURE10UErrorCode(i32 noundef %38)
  %40 = icmp ne i8 %39, 0
  br i1 %40, label %41, label %42

41:                                               ; preds = %29
  store i32 1, ptr %8, align 4
  br label %56

42:                                               ; preds = %29
  %43 = load i32, ptr %7, align 4, !tbaa !105
  %44 = icmp eq i32 %43, 2
  br i1 %44, label %45, label %47

45:                                               ; preds = %42
  %46 = load ptr, ptr %6, align 8, !tbaa !22
  store i32 65804, ptr %46, align 4, !tbaa !15
  store i32 1, ptr %8, align 4
  br label %56

47:                                               ; preds = %42
  %48 = getelementptr inbounds nuw %"class.icu_77::units::UnitsConverter", ptr %9, i32 0, i32 1
  %49 = getelementptr inbounds nuw %"class.icu_77::units::UnitsConverter", ptr %9, i32 0, i32 1
  %50 = getelementptr inbounds nuw %"struct.icu_77::units::ConversionRate", ptr %49, i32 0, i32 1
  %51 = getelementptr inbounds nuw %"class.icu_77::units::UnitsConverter", ptr %9, i32 0, i32 1
  %52 = getelementptr inbounds nuw %"struct.icu_77::units::ConversionRate", ptr %51, i32 0, i32 2
  %53 = load i32, ptr %7, align 4, !tbaa !105
  %54 = load ptr, ptr %5, align 8, !tbaa !48
  %55 = load ptr, ptr %6, align 8, !tbaa !22
  call void @_ZN6icu_775units12_GLOBAL__N_118loadConversionRateERNS0_14ConversionRateERKNS_15MeasureUnitImplES6_NS0_14ConvertibilityERKNS0_15ConversionRatesER10UErrorCode(ptr noundef nonnull align 8 dereferenceable(505) %48, ptr noundef nonnull align 8 dereferenceable(168) %50, ptr noundef nonnull align 8 dereferenceable(168) %52, i32 noundef %53, ptr noundef nonnull align 8 dereferenceable(88) %54, ptr noundef nonnull align 4 dereferenceable(4) %55)
  store i32 0, ptr %8, align 4
  br label %56

56:                                               ; preds = %47, %45, %41
  call void @llvm.lifetime.end.p0(i64 4, ptr %7) #12
  %57 = load i32, ptr %8, align 4
  switch i32 %57, label %59 [
    i32 0, label %58
    i32 1, label %58
  ]

58:                                               ; preds = %14, %27, %56, %56
  ret void

59:                                               ; preds = %56
  unreachable
}

; Function Attrs: mustprogress uwtable
define void @_ZN6icu_775units14UnitsConverterC2ERKNS_15MeasureUnitImplES4_RKNS0_15ConversionRatesER10UErrorCode(ptr noundef nonnull align 8 dereferenceable(520) %0, ptr noundef nonnull align 8 dereferenceable(168) %1, ptr noundef nonnull align 8 dereferenceable(168) %2, ptr noundef nonnull align 8 dereferenceable(88) %3, ptr noundef nonnull align 4 dereferenceable(4) %4) unnamed_addr #1 align 2 personality ptr @__gxx_personality_v0 {
  %6 = alloca ptr, align 8
  %7 = alloca ptr, align 8
  %8 = alloca ptr, align 8
  %9 = alloca ptr, align 8
  %10 = alloca ptr, align 8
  %11 = alloca %"class.icu_77::MeasureUnitImpl", align 8
  %12 = alloca %"class.icu_77::MeasureUnitImpl", align 8
  %13 = alloca ptr, align 8
  %14 = alloca i32, align 4
  store ptr %0, ptr %6, align 8, !tbaa !92
  store ptr %1, ptr %7, align 8, !tbaa !46
  store ptr %2, ptr %8, align 8, !tbaa !46
  store ptr %3, ptr %9, align 8, !tbaa !48
  store ptr %4, ptr %10, align 8, !tbaa !22
  %15 = load ptr, ptr %6, align 8
  %16 = getelementptr inbounds nuw %"class.icu_77::units::UnitsConverter", ptr %15, i32 0, i32 1
  call void @llvm.lifetime.start.p0(i64 168, ptr %11) #12
  %17 = load ptr, ptr %7, align 8, !tbaa !46
  %18 = load ptr, ptr %10, align 8, !tbaa !22
  call void @_ZNK6icu_7715MeasureUnitImpl4copyER10UErrorCode(ptr dead_on_unwind writable sret(%"class.icu_77::MeasureUnitImpl") align 8 %11, ptr noundef nonnull align 8 dereferenceable(168) %17, ptr noundef nonnull align 4 dereferenceable(4) %18)
  call void @llvm.lifetime.start.p0(i64 168, ptr %12) #12
  %19 = load ptr, ptr %8, align 8, !tbaa !46
  %20 = load ptr, ptr %10, align 8, !tbaa !22
  invoke void @_ZNK6icu_7715MeasureUnitImpl4copyER10UErrorCode(ptr dead_on_unwind writable sret(%"class.icu_77::MeasureUnitImpl") align 8 %12, ptr noundef nonnull align 8 dereferenceable(168) %19, ptr noundef nonnull align 4 dereferenceable(4) %20)
          to label %21 unwind label %26

21:                                               ; preds = %5
  invoke void @_ZN6icu_775units14ConversionRateC2EONS_15MeasureUnitImplES3_(ptr noundef nonnull align 8 dereferenceable(505) %16, ptr noundef nonnull align 8 dereferenceable(168) %11, ptr noundef nonnull align 8 dereferenceable(168) %12)
          to label %22 unwind label %30

22:                                               ; preds = %21
  call void @_ZN6icu_7715MeasureUnitImplD2Ev(ptr noundef nonnull align 8 dereferenceable(168) %12) #12
  call void @llvm.lifetime.end.p0(i64 168, ptr %12) #12
  call void @_ZN6icu_7715MeasureUnitImplD2Ev(ptr noundef nonnull align 8 dereferenceable(168) %11) #12
  call void @llvm.lifetime.end.p0(i64 168, ptr %11) #12
  %23 = load ptr, ptr %9, align 8, !tbaa !48
  %24 = load ptr, ptr %10, align 8, !tbaa !22
  invoke void @_ZN6icu_775units14UnitsConverter4initERKNS0_15ConversionRatesER10UErrorCode(ptr noundef nonnull align 8 dereferenceable(520) %15, ptr noundef nonnull align 8 dereferenceable(88) %23, ptr noundef nonnull align 4 dereferenceable(4) %24)
          to label %25 unwind label %35

25:                                               ; preds = %22
  ret void

26:                                               ; preds = %5
  %27 = landingpad { ptr, i32 }
          cleanup
  %28 = extractvalue { ptr, i32 } %27, 0
  store ptr %28, ptr %13, align 8
  %29 = extractvalue { ptr, i32 } %27, 1
  store i32 %29, ptr %14, align 4
  br label %34

30:                                               ; preds = %21
  %31 = landingpad { ptr, i32 }
          cleanup
  %32 = extractvalue { ptr, i32 } %31, 0
  store ptr %32, ptr %13, align 8
  %33 = extractvalue { ptr, i32 } %31, 1
  store i32 %33, ptr %14, align 4
  call void @_ZN6icu_7715MeasureUnitImplD2Ev(ptr noundef nonnull align 8 dereferenceable(168) %12) #12
  br label %34

34:                                               ; preds = %30, %26
  call void @llvm.lifetime.end.p0(i64 168, ptr %12) #12
  call void @_ZN6icu_7715MeasureUnitImplD2Ev(ptr noundef nonnull align 8 dereferenceable(168) %11) #12
  call void @llvm.lifetime.end.p0(i64 168, ptr %11) #12
  br label %39

35:                                               ; preds = %22
  %36 = landingpad { ptr, i32 }
          cleanup
  %37 = extractvalue { ptr, i32 } %36, 0
  store ptr %37, ptr %13, align 8
  %38 = extractvalue { ptr, i32 } %36, 1
  store i32 %38, ptr %14, align 4
  call void @_ZN6icu_775units14ConversionRateD2Ev(ptr noundef nonnull align 8 dereferenceable(505) %16) #12
  br label %39

39:                                               ; preds = %35, %34
  %40 = load ptr, ptr %13, align 8
  %41 = load i32, ptr %14, align 4
  %42 = insertvalue { ptr, i32 } poison, ptr %40, 0
  %43 = insertvalue { ptr, i32 } %42, i32 %41, 1
  resume { ptr, i32 } %43
}