; Function Attrs: mustprogress uwtable
define void @_ZN6icu_775units14UnitsConverterC2ERKNS_15MeasureUnitImplES4_RKNS0_15ConversionRatesER10UErrorCode(ptr noundef nonnull align 8 dereferenceable(520) %0, ptr noundef nonnull align 8 dereferenceable(168) %1, ptr noundef nonnull align 8 dereferenceable(168) %2, ptr noundef nonnull align 8 dereferenceable(88) %3, ptr noundef nonnull align 4 dereferenceable(4) %4) unnamed_addr #1 align 2 personality ptr @__gxx_personality_v0 {
  %6 = alloca %"class.icu_77::MeasureUnitImpl", align 8
  %7 = alloca %"class.icu_77::MeasureUnitImpl", align 8
  %8 = getelementptr inbounds nuw i8, ptr %0, i64 8
  call void @llvm.lifetime.start.p0(i64 168, ptr nonnull %6) #21
  call void @_ZNK6icu_7715MeasureUnitImpl4copyER10UErrorCode(ptr dead_on_unwind nonnull writable sret(%"class.icu_77::MeasureUnitImpl") align 8 %6, ptr noundef nonnull align 8 dereferenceable(168) %1, ptr noundef nonnull align 4 dereferenceable(4) %4)
  call void @llvm.lifetime.start.p0(i64 168, ptr nonnull %7) #21
  invoke void @_ZNK6icu_7715MeasureUnitImpl4copyER10UErrorCode(ptr dead_on_unwind nonnull writable sret(%"class.icu_77::MeasureUnitImpl") align 8 %7, ptr noundef nonnull align 8 dereferenceable(168) %2, ptr noundef nonnull align 4 dereferenceable(4) %4)
          to label %9 unwind label %76

9:                                                ; preds = %5
  invoke void @_ZN6icu_775units14ConversionRateC2EONS_15MeasureUnitImplES3_(ptr noundef nonnull align 8 dereferenceable(505) %8, ptr noundef nonnull align 8 dereferenceable(168) %6, ptr noundef nonnull align 8 dereferenceable(168) %7)
          to label %10 unwind label %78

10:                                               ; preds = %9
  %11 = getelementptr inbounds nuw i8, ptr %7, i64 96
  call void @_ZN6icu_7715MaybeStackArrayIcLi40EED1Ev(ptr noundef nonnull align 8 dereferenceable(60) %11) #21
  %12 = getelementptr inbounds nuw i8, ptr %7, i64 8
  %13 = load i32, ptr %12, align 8, !tbaa !43
  %14 = icmp sgt i32 %13, 0
  br i1 %14, label %.lr.ph.i.i, label %._crit_edge.i.i

.lr.ph.i.i:                                       ; preds = %10
  %15 = getelementptr inbounds nuw i8, ptr %7, i64 16
  br label %24

._crit_edge.i.i:                                  ; preds = %31, %10
  %16 = getelementptr inbounds nuw i8, ptr %7, i64 28
  %17 = load i8, ptr %16, align 4, !tbaa !46
  %.not.i.i.i.i = icmp eq i8 %17, 0
  br i1 %.not.i.i.i.i, label %_ZN6icu_7715MeasureUnitImplD2Ev.exit, label %18

18:                                               ; preds = %._crit_edge.i.i
  %19 = getelementptr inbounds nuw i8, ptr %7, i64 16
  %20 = load ptr, ptr %19, align 8, !tbaa !44
  invoke void @uprv_free_77(ptr noundef %20)
          to label %_ZN6icu_7715MeasureUnitImplD2Ev.exit unwind label %21

21:                                               ; preds = %18
  %22 = landingpad { ptr, i32 }
          catch ptr null
  %23 = extractvalue { ptr, i32 } %22, 0
  call void @__clang_call_terminate(ptr %23) #23
  unreachable

24:                                               ; preds = %31, %.lr.ph.i.i
  %25 = phi i32 [ %13, %.lr.ph.i.i ], [ %32, %31 ]
  %indvars.iv.i.i = phi i64 [ 0, %.lr.ph.i.i ], [ %indvars.iv.next.i.i, %31 ]
  %26 = load ptr, ptr %15, align 8, !tbaa !44
  %27 = getelementptr inbounds nuw ptr, ptr %26, i64 %indvars.iv.i.i
  %28 = load ptr, ptr %27, align 8, !tbaa !51
  %29 = icmp eq ptr %28, null
  br i1 %29, label %31, label %30

30:                                               ; preds = %24
  call void @_ZN6icu_777UMemorydlEPv(ptr noundef nonnull %28) #21
  %.pre.i.i = load i32, ptr %12, align 8, !tbaa !43
  br label %31

31:                                               ; preds = %30, %24
  %32 = phi i32 [ %25, %24 ], [ %.pre.i.i, %30 ]
  %indvars.iv.next.i.i = add nuw nsw i64 %indvars.iv.i.i, 1
  %33 = sext i32 %32 to i64
  %34 = icmp slt i64 %indvars.iv.next.i.i, %33
  br i1 %34, label %24, label %._crit_edge.i.i, !llvm.loop !53

_ZN6icu_7715MeasureUnitImplD2Ev.exit:             ; preds = %._crit_edge.i.i, %18
  call void @llvm.lifetime.end.p0(i64 168, ptr nonnull %7) #21
  %35 = getelementptr inbounds nuw i8, ptr %6, i64 96
  call void @_ZN6icu_7715MaybeStackArrayIcLi40EED1Ev(ptr noundef nonnull align 8 dereferenceable(60) %35) #21
  %36 = getelementptr inbounds nuw i8, ptr %6, i64 8
  %37 = load i32, ptr %36, align 8, !tbaa !43
  %38 = icmp sgt i32 %37, 0
  br i1 %38, label %.lr.ph.i.i15, label %._crit_edge.i.i13

.lr.ph.i.i15:                                     ; preds = %_ZN6icu_7715MeasureUnitImplD2Ev.exit
  %39 = getelementptr inbounds nuw i8, ptr %6, i64 16
  br label %48

._crit_edge.i.i13:                                ; preds = %55, %_ZN6icu_7715MeasureUnitImplD2Ev.exit
  %40 = getelementptr inbounds nuw i8, ptr %6, i64 28
  %41 = load i8, ptr %40, align 4, !tbaa !46
  %.not.i.i.i.i14 = icmp eq i8 %41, 0
  br i1 %.not.i.i.i.i14, label %_ZN6icu_7715MeasureUnitImplD2Ev.exit19, label %42

42:                                               ; preds = %._crit_edge.i.i13
  %43 = getelementptr inbounds nuw i8, ptr %6, i64 16
  %44 = load ptr, ptr %43, align 8, !tbaa !44
  invoke void @uprv_free_77(ptr noundef %44)
          to label %_ZN6icu_7715MeasureUnitImplD2Ev.exit19 unwind label %45

45:                                               ; preds = %42
  %46 = landingpad { ptr, i32 }
          catch ptr null
  %47 = extractvalue { ptr, i32 } %46, 0
  call void @__clang_call_terminate(ptr %47) #23
  unreachable

48:                                               ; preds = %55, %.lr.ph.i.i15
  %49 = phi i32 [ %37, %.lr.ph.i.i15 ], [ %56, %55 ]
  %indvars.iv.i.i16 = phi i64 [ 0, %.lr.ph.i.i15 ], [ %indvars.iv.next.i.i18, %55 ]
  %50 = load ptr, ptr %39, align 8, !tbaa !44
  %51 = getelementptr inbounds nuw ptr, ptr %50, i64 %indvars.iv.i.i16
  %52 = load ptr, ptr %51, align 8, !tbaa !51
  %53 = icmp eq ptr %52, null
  br i1 %53, label %55, label %54

54:                                               ; preds = %48
  call void @_ZN6icu_777UMemorydlEPv(ptr noundef nonnull %52) #21
  %.pre.i.i17 = load i32, ptr %36, align 8, !tbaa !43
  br label %55

55:                                               ; preds = %54, %48
  %56 = phi i32 [ %49, %48 ], [ %.pre.i.i17, %54 ]
  %indvars.iv.next.i.i18 = add nuw nsw i64 %indvars.iv.i.i16, 1
  %57 = sext i32 %56 to i64
  %58 = icmp slt i64 %indvars.iv.next.i.i18, %57
  br i1 %58, label %48, label %._crit_edge.i.i13, !llvm.loop !53

_ZN6icu_7715MeasureUnitImplD2Ev.exit19:           ; preds = %._crit_edge.i.i13, %42
  call void @llvm.lifetime.end.p0(i64 168, ptr nonnull %6) #21
  %59 = load i32, ptr %4, align 4, !tbaa !13
  %60 = icmp slt i32 %59, 1
  br i1 %60, label %61, label %_ZN6icu_775units14UnitsConverter4initERKNS0_15ConversionRatesER10UErrorCode.exit

61:                                               ; preds = %_ZN6icu_7715MeasureUnitImplD2Ev.exit19
  %62 = getelementptr inbounds nuw i8, ptr %0, i64 16
  %63 = load i32, ptr %62, align 8, !tbaa !74
  %64 = icmp eq i32 %63, 2
  br i1 %64, label %_ZN6icu_775units14UnitsConverter4initERKNS0_15ConversionRatesER10UErrorCode.exit.sink.split, label %65

65:                                               ; preds = %61
  %66 = getelementptr inbounds nuw i8, ptr %0, i64 184
  %67 = load i32, ptr %66, align 8, !tbaa !77
  %68 = icmp eq i32 %67, 2
  br i1 %68, label %_ZN6icu_775units14UnitsConverter4initERKNS0_15ConversionRatesER10UErrorCode.exit.sink.split, label %69

69:                                               ; preds = %65
  %70 = invoke noundef i32 @_ZN6icu_775units21extractConvertibilityERKNS_15MeasureUnitImplES3_RKNS0_15ConversionRatesER10UErrorCode(ptr noundef nonnull align 8 dereferenceable(168) %62, ptr noundef nonnull align 8 dereferenceable(168) %66, ptr noundef nonnull align 8 dereferenceable(88) %3, ptr noundef nonnull align 4 dereferenceable(4) %4)
          to label %.noexc unwind label %81

.noexc:                                           ; preds = %69
  %71 = load i32, ptr %4, align 4, !tbaa !13
  %72 = icmp slt i32 %71, 1
  br i1 %72, label %73, label %_ZN6icu_775units14UnitsConverter4initERKNS0_15ConversionRatesER10UErrorCode.exit

73:                                               ; preds = %.noexc
  %74 = icmp eq i32 %70, 2
  br i1 %74, label %_ZN6icu_775units14UnitsConverter4initERKNS0_15ConversionRatesER10UErrorCode.exit.sink.split, label %75

75:                                               ; preds = %73
  invoke fastcc void @_ZN6icu_775units12_GLOBAL__N_118loadConversionRateERNS0_14ConversionRateERKNS_15MeasureUnitImplES6_NS0_14ConvertibilityERKNS0_15ConversionRatesER10UErrorCode(ptr noundef nonnull align 8 dereferenceable(505) %8, ptr noundef nonnull align 8 dereferenceable(168) %62, ptr noundef nonnull align 8 dereferenceable(168) %66, i32 noundef %70, ptr noundef nonnull align 8 dereferenceable(88) %3, ptr noundef nonnull align 4 dereferenceable(4) %4)
          to label %_ZN6icu_775units14UnitsConverter4initERKNS0_15ConversionRatesER10UErrorCode.exit unwind label %81

_ZN6icu_775units14UnitsConverter4initERKNS0_15ConversionRatesER10UErrorCode.exit.sink.split: ; preds = %73, %61, %65
  store i32 65804, ptr %4, align 4, !tbaa !13
  br label %_ZN6icu_775units14UnitsConverter4initERKNS0_15ConversionRatesER10UErrorCode.exit

_ZN6icu_775units14UnitsConverter4initERKNS0_15ConversionRatesER10UErrorCode.exit: ; preds = %_ZN6icu_775units14UnitsConverter4initERKNS0_15ConversionRatesER10UErrorCode.exit.sink.split, %.noexc, %_ZN6icu_7715MeasureUnitImplD2Ev.exit19, %75
  ret void

76:                                               ; preds = %5
  %77 = landingpad { ptr, i32 }
          cleanup
  br label %80

78:                                               ; preds = %9
  %79 = landingpad { ptr, i32 }
          cleanup
  call void @_ZN6icu_7715MeasureUnitImplD2Ev(ptr noundef nonnull align 8 dereferenceable(168) %7) #21
  br label %80

80:                                               ; preds = %78, %76
  %.pn = phi { ptr, i32 } [ %79, %78 ], [ %77, %76 ]
  call void @llvm.lifetime.end.p0(i64 168, ptr nonnull %7) #21
  call void @_ZN6icu_7715MeasureUnitImplD2Ev(ptr noundef nonnull align 8 dereferenceable(168) %6) #21
  call void @llvm.lifetime.end.p0(i64 168, ptr nonnull %6) #21
  br label %83

81:                                               ; preds = %75, %69
  %82 = landingpad { ptr, i32 }
          cleanup
  call void @_ZN6icu_775units14ConversionRateD2Ev(ptr noundef nonnull align 8 dereferenceable(505) %8) #21
  br label %83

83:                                               ; preds = %81, %80
  %.pn11 = phi { ptr, i32 } [ %82, %81 ], [ %.pn, %80 ]
  resume { ptr, i32 } %.pn11
}